target datalayout = "e-m:e-p270:32:32-p271:32:32-p272:64:64-i64:64-i128:128-f80:128-n8:16:32:64-S128"
target triple = "x86_64-pc-linux-gnu"

%struct.WalReceiverFunctionsType = type { ptr, ptr, ptr, ptr, ptr, ptr, ptr, ptr, ptr, ptr, ptr, ptr, ptr, ptr, ptr, ptr, ptr }

@WalReceiverFunctions = dso_local global ptr null, align 8
@.str.1 = private unnamed_addr constant [14 x i8] c"walreceiver.c\00", align 1
@wrconn = internal global ptr null, align 8
@XLogArchiveMode = external global i32, align 4
@.str.26 = private unnamed_addr constant [67 x i8] c"fetching timeline history file for timeline %u from primary server\00", align 1
@__func__.WalRcvFetchTimeLineHistoryFiles = private unnamed_addr constant [32 x i8] c"WalRcvFetchTimeLineHistoryFiles\00", align 1
@.str.27 = private unnamed_addr constant [79 x i8] c"primary reported unexpected file name for timeline history file of timeline %u\00", align 1
@.str.28 = private unnamed_addr constant [13 x i8] c"%08X.history\00", align 1

; Function Attrs: inlinehint nounwind uwtable
define internal void @TLHistoryFileName(ptr noundef %0, i32 noundef %1) #6 {
  %3 = alloca ptr, align 8
  %4 = alloca i32, align 4
  store ptr %0, ptr %3, align 8
  store i32 %1, ptr %4, align 4
  %5 = load ptr, ptr %3, align 8
  %6 = load i32, ptr %4, align 4
  %7 = call i32 (ptr, i64, ptr, ...) @pg_snprintf(ptr noundef %5, i64 noundef 64, ptr noundef @.str.28, i32 noundef %6)
  ret void
}

; Function Attrs: nounwind uwtable
define internal void @WalRcvFetchTimeLineHistoryFiles(i32 noundef %0, i32 noundef %1) #0 {
  %3 = alloca i32, align 4
  %4 = alloca i32, align 4
  %5 = alloca i32, align 4
  %6 = alloca ptr, align 8
  %7 = alloca ptr, align 8
  %8 = alloca i32, align 4
  %9 = alloca [64 x i8], align 16
  store i32 %0, ptr %3, align 4
  store i32 %1, ptr %4, align 4
  call void @llvm.lifetime.start.p0(i64 4, ptr %5) #16
  %10 = load i32, ptr %3, align 4
  store i32 %10, ptr %5, align 4
  br label %11

11:                                               ; preds = %71, %2
  %12 = load i32, ptr %5, align 4
  %13 = load i32, ptr %4, align 4
  %14 = icmp ule i32 %12, %13
  br i1 %14, label %15, label %74

15:                                               ; preds = %11
  %16 = load i32, ptr %5, align 4
  %17 = icmp ne i32 %16, 1
  br i1 %17, label %18, label %70

18:                                               ; preds = %15
  %19 = load i32, ptr %5, align 4
  %20 = call zeroext i1 @existsTimeLineHistory(i32 noundef %19)
  br i1 %20, label %70, label %21

21:                                               ; preds = %18
  call void @llvm.lifetime.start.p0(i64 8, ptr %6) #16
  call void @llvm.lifetime.start.p0(i64 8, ptr %7) #16
  call void @llvm.lifetime.start.p0(i64 4, ptr %8) #16
  call void @llvm.lifetime.start.p0(i64 64, ptr %9) #16
  br label %22

22:                                               ; preds = %21
  br i1 false, label %23, label %25

23:                                               ; preds = %22
  %24 = call zeroext i1 @errstart_cold(i32 noundef 15, ptr noundef null) #15
  br i1 %24, label %27, label %30

25:                                               ; preds = %22
  %26 = call zeroext i1 @errstart(i32 noundef 15, ptr noundef null)
  br i1 %26, label %27, label %30

27:                                               ; preds = %25, %23
  %28 = load i32, ptr %5, align 4
  %29 = call i32 (ptr, ...) @errmsg(ptr noundef @.str.26, i32 noundef %28)
  call void @errfinish(ptr noundef @.str.1, i32 noundef 762, ptr noundef @__func__.WalRcvFetchTimeLineHistoryFiles)
  br label %30

30:                                               ; preds = %27, %25, %23
  br label %31

31:                                               ; preds = %30
  br label %32

32:                                               ; preds = %31
  %33 = load ptr, ptr @WalReceiverFunctions, align 8
  %34 = getelementptr inbounds nuw %struct.WalReceiverFunctionsType, ptr %33, i32 0, i32 7
  %35 = load ptr, ptr %34, align 8
  %36 = load ptr, ptr @wrconn, align 8
  %37 = load i32, ptr %5, align 4
  call void %35(ptr noundef %36, i32 noundef %37, ptr noundef %6, ptr noundef %7, ptr noundef %8)
  %38 = getelementptr inbounds [64 x i8], ptr %9, i64 0, i64 0
  %39 = load i32, ptr %5, align 4
  call void @TLHistoryFileName(ptr noundef %38, i32 noundef %39)
  %40 = load ptr, ptr %6, align 8
  %41 = getelementptr inbounds [64 x i8], ptr %9, i64 0, i64 0
  %42 = call i32 @strcmp(ptr noundef %40, ptr noundef %41) #18
  %43 = icmp ne i32 %42, 0
  br i1 %43, label %44, label %57

44:                                               ; preds = %32
  br label %45

45:                                               ; preds = %44
  br i1 true, label %46, label %48

46:                                               ; preds = %45
  %47 = call zeroext i1 @errstart_cold(i32 noundef 21, ptr noundef null) #15
  br i1 %47, label %50, label %54

48:                                               ; preds = %45
  %49 = call zeroext i1 @errstart(i32 noundef 21, ptr noundef null)
  br i1 %49, label %50, label %54

50:                                               ; preds = %48, %46
  %51 = call i32 @errcode(i32 noundef 16908800)
  %52 = load i32, ptr %5, align 4
  %53 = call i32 (ptr, ...) @errmsg_internal(ptr noundef @.str.27, i32 noundef %52)
  call void @errfinish(ptr noundef @.str.1, i32 noundef 776, ptr noundef @__func__.WalRcvFetchTimeLineHistoryFiles)
  br label %54

54:                                               ; preds = %50, %48, %46
  unreachable

55:                                               ; No predecessors!
  br label %56

56:                                               ; preds = %55
  br label %57

57:                                               ; preds = %56, %32
  %58 = load i32, ptr %5, align 4
  %59 = load ptr, ptr %7, align 8
  %60 = load i32, ptr %8, align 4
  call void @writeTimeLineHistoryFile(i32 noundef %58, ptr noundef %59, i32 noundef %60)
  %61 = load i32, ptr @XLogArchiveMode, align 4
  %62 = icmp ne i32 %61, 2
  br i1 %62, label %63, label %65

63:                                               ; preds = %57
  %64 = load ptr, ptr %6, align 8
  call void @XLogArchiveForceDone(ptr noundef %64)
  br label %67

65:                                               ; preds = %57
  %66 = load ptr, ptr %6, align 8
  call void @XLogArchiveNotify(ptr noundef %66)
  br label %67

67:                                               ; preds = %65, %63
  %68 = load ptr, ptr %6, align 8
  call void @pfree(ptr noundef %68)
  %69 = load ptr, ptr %7, align 8
  call void @pfree(ptr noundef %69)
  call void @llvm.lifetime.end.p0(i64 64, ptr %9) #16
  call void @llvm.lifetime.end.p0(i64 4, ptr %8) #16
  call void @llvm.lifetime.end.p0(i64 8, ptr %7) #16
  call void @llvm.lifetime.end.p0(i64 8, ptr %6) #16
  br label %70

70:                                               ; preds = %67, %18, %15
  br label %71

71:                                               ; preds = %70
  %72 = load i32, ptr %5, align 4
  %73 = add i32 %72, 1
  store i32 %73, ptr %5, align 4
  br label %11, !llvm.loop !18

74:                                               ; preds = %11
  call void @llvm.lifetime.end.p0(i64 4, ptr %5) #16
  ret void
}