; Function Attrs: nounwind uwtable
define internal fastcc void @WalRcvFetchTimeLineHistoryFiles(i32 noundef %0, i32 noundef %1) unnamed_addr #0 {
  %3 = alloca ptr, align 8
  %4 = alloca ptr, align 8
  %5 = alloca i32, align 4
  %6 = alloca [64 x i8], align 16
  %.not15 = icmp ugt i32 %0, %1
  br i1 %.not15, label %._crit_edge, label %.lr.ph

.lr.ph:                                           ; preds = %2, %35
  %.016 = phi i32 [ %36, %35 ], [ %0, %2 ]
  %.not11 = icmp eq i32 %.016, 1
  br i1 %.not11, label %35, label %7

7:                                                ; preds = %.lr.ph
  %8 = call zeroext i1 @existsTimeLineHistory(i32 noundef %.016) #16
  br i1 %8, label %35, label %9

9:                                                ; preds = %7
  call void @llvm.lifetime.start.p0(i64 8, ptr nonnull %3) #16
  call void @llvm.lifetime.start.p0(i64 8, ptr nonnull %4) #16
  call void @llvm.lifetime.start.p0(i64 4, ptr nonnull %5) #16
  call void @llvm.lifetime.start.p0(i64 64, ptr nonnull %6) #16
  %10 = call zeroext i1 @errstart(i32 noundef 15, ptr noundef null) #16
  br i1 %10, label %11, label %13

11:                                               ; preds = %9
  %12 = call i32 (ptr, ...) @errmsg(ptr noundef nonnull @.str.26, i32 noundef %.016) #16
  call void @errfinish(ptr noundef nonnull @.str.1, i32 noundef 762, ptr noundef nonnull @__func__.WalRcvFetchTimeLineHistoryFiles) #16
  br label %13

13:                                               ; preds = %11, %9
  %14 = load ptr, ptr @WalReceiverFunctions, align 8
  %15 = getelementptr inbounds nuw i8, ptr %14, i64 56
  %16 = load ptr, ptr %15, align 8
  %17 = load ptr, ptr @wrconn, align 8
  call void %16(ptr noundef %17, i32 noundef %.016, ptr noundef nonnull %3, ptr noundef nonnull %4, ptr noundef nonnull %5) #16
  %18 = call i32 (ptr, i64, ptr, ...) @pg_snprintf(ptr noundef nonnull %6, i64 noundef 64, ptr noundef nonnull @.str.28, i32 noundef range(i32 2, 1) %.016) #16
  %19 = load ptr, ptr %3, align 8
  %20 = call i32 @strcmp(ptr noundef nonnull dereferenceable(1) %19, ptr noundef nonnull dereferenceable(1) %6) #19
  %.not12 = icmp eq i32 %20, 0
  br i1 %.not12, label %25, label %21

21:                                               ; preds = %13
  %22 = call zeroext i1 @errstart_cold(i32 noundef 21, ptr noundef null) #17
  call void @llvm.assume(i1 %22)
  %23 = call i32 @errcode(i32 noundef 16908800) #16
  %24 = call i32 (ptr, ...) @errmsg_internal(ptr noundef nonnull @.str.27, i32 noundef %.016) #16
  call void @errfinish(ptr noundef nonnull @.str.1, i32 noundef 776, ptr noundef nonnull @__func__.WalRcvFetchTimeLineHistoryFiles) #16
  unreachable

25:                                               ; preds = %13
  %26 = load ptr, ptr %4, align 8
  %27 = load i32, ptr %5, align 4
  call void @writeTimeLineHistoryFile(i32 noundef %.016, ptr noundef %26, i32 noundef %27) #16
  %28 = load i32, ptr @XLogArchiveMode, align 4
  %.not13 = icmp eq i32 %28, 2
  %29 = load ptr, ptr %3, align 8
  br i1 %.not13, label %31, label %30

30:                                               ; preds = %25
  call void @XLogArchiveForceDone(ptr noundef %29) #16
  br label %32

31:                                               ; preds = %25
  call void @XLogArchiveNotify(ptr noundef %29) #16
  br label %32

32:                                               ; preds = %31, %30
  %33 = load ptr, ptr %3, align 8
  call void @pfree(ptr noundef %33) #16
  %34 = load ptr, ptr %4, align 8
  call void @pfree(ptr noundef %34) #16
  call void @llvm.lifetime.end.p0(i64 64, ptr nonnull %6) #16
  call void @llvm.lifetime.end.p0(i64 4, ptr nonnull %5) #16
  call void @llvm.lifetime.end.p0(i64 8, ptr nonnull %4) #16
  call void @llvm.lifetime.end.p0(i64 8, ptr nonnull %3) #16
  br label %35

35:                                               ; preds = %.lr.ph, %7, %32
  %36 = add i32 %.016, 1
  %.not = icmp ugt i32 %36, %1
  br i1 %.not, label %._crit_edge, label %.lr.ph, !llvm.loop !24

._crit_edge:                                      ; preds = %35, %2
  ret void
}